target datalayout = "e-m:e-p270:32:32-p271:32:32-p272:64:64-i64:64-i128:128-f80:128-n8:16:32:64-S128"
target triple = "x86_64-pc-linux-gnu"

%struct.gz_state = type { i32, i32, ptr, i64, i32, i32, ptr, ptr, ptr, i32, i32, i64, i64, i32, i32, i32, i32, i64, i32, i32, ptr, %struct.z_stream_s }
%struct.z_stream_s = type { ptr, i32, i64, ptr, i32, i64, ptr, ptr, ptr, ptr, ptr, i32, i64, i64 }
%struct.__va_list_tag = type { i32, i32, ptr, ptr }

; Function Attrs: nounwind uwtable
define internal i32 @gz_zero(ptr noundef %0, i64 noundef %1) #0 {
  %3 = alloca i32, align 4
  %4 = alloca ptr, align 8
  %5 = alloca i64, align 8
  %6 = alloca i32, align 4
  %7 = alloca i32, align 4
  %8 = alloca ptr, align 8
  %9 = alloca i32, align 4
  store ptr %0, ptr %4, align 8, !tbaa !3
  store i64 %1, ptr %5, align 8, !tbaa !37
  call void @llvm.lifetime.start.p0(i64 4, ptr %6) #10
  call void @llvm.lifetime.start.p0(i64 4, ptr %7) #10
  call void @llvm.lifetime.start.p0(i64 8, ptr %8) #10
  %10 = load ptr, ptr %4, align 8, !tbaa !3
  %11 = getelementptr inbounds nuw %struct.gz_state, ptr %10, i32 0, i32 21
  store ptr %11, ptr %8, align 8, !tbaa !9
  %12 = load ptr, ptr %8, align 8, !tbaa !9
  %13 = getelementptr inbounds nuw %struct.z_stream_s, ptr %12, i32 0, i32 1
  %14 = load i32, ptr %13, align 8, !tbaa !21
  %15 = icmp ne i32 %14, 0
  br i1 %15, label %16, label %21

16:                                               ; preds = %2
  %17 = load ptr, ptr %4, align 8, !tbaa !3
  %18 = call i32 @gz_comp(ptr noundef %17, i32 noundef 0)
  %19 = icmp eq i32 %18, -1
  br i1 %19, label %20, label %21

20:                                               ; preds = %16
  store i32 -1, ptr %3, align 4
  store i32 1, ptr %9, align 4
  br label %74

21:                                               ; preds = %16, %2
  store i32 1, ptr %6, align 4, !tbaa !7
  br label %22

22:                                               ; preds = %68, %21
  %23 = load i64, ptr %5, align 8, !tbaa !37
  %24 = icmp ne i64 %23, 0
  br i1 %24, label %25, label %73

25:                                               ; preds = %22
  %26 = load ptr, ptr %4, align 8, !tbaa !3
  %27 = getelementptr inbounds nuw %struct.gz_state, ptr %26, i32 0, i32 4
  %28 = load i32, ptr %27, align 8, !tbaa !18
  %29 = zext i32 %28 to i64
  %30 = load i64, ptr %5, align 8, !tbaa !37
  %31 = icmp sgt i64 %29, %30
  br i1 %31, label %32, label %35

32:                                               ; preds = %25
  %33 = load i64, ptr %5, align 8, !tbaa !37
  %34 = trunc i64 %33 to i32
  br label %39

35:                                               ; preds = %25
  %36 = load ptr, ptr %4, align 8, !tbaa !3
  %37 = getelementptr inbounds nuw %struct.gz_state, ptr %36, i32 0, i32 4
  %38 = load i32, ptr %37, align 8, !tbaa !18
  br label %39

39:                                               ; preds = %35, %32
  %40 = phi i32 [ %34, %32 ], [ %38, %35 ]
  store i32 %40, ptr %7, align 4, !tbaa !7
  %41 = load i32, ptr %6, align 4, !tbaa !7
  %42 = icmp ne i32 %41, 0
  br i1 %42, label %43, label %49

43:                                               ; preds = %39
  %44 = load ptr, ptr %4, align 8, !tbaa !3
  %45 = getelementptr inbounds nuw %struct.gz_state, ptr %44, i32 0, i32 6
  %46 = load ptr, ptr %45, align 8, !tbaa !22
  %47 = load i32, ptr %7, align 4, !tbaa !7
  %48 = zext i32 %47 to i64
  call void @llvm.memset.p0.i64(ptr align 1 %46, i8 0, i64 %48, i1 false)
  store i32 0, ptr %6, align 4, !tbaa !7
  br label %49

49:                                               ; preds = %43, %39
  %50 = load i32, ptr %7, align 4, !tbaa !7
  %51 = load ptr, ptr %8, align 8, !tbaa !9
  %52 = getelementptr inbounds nuw %struct.z_stream_s, ptr %51, i32 0, i32 1
  store i32 %50, ptr %52, align 8, !tbaa !21
  %53 = load ptr, ptr %4, align 8, !tbaa !3
  %54 = getelementptr inbounds nuw %struct.gz_state, ptr %53, i32 0, i32 6
  %55 = load ptr, ptr %54, align 8, !tbaa !22
  %56 = load ptr, ptr %8, align 8, !tbaa !9
  %57 = getelementptr inbounds nuw %struct.z_stream_s, ptr %56, i32 0, i32 0
  store ptr %55, ptr %57, align 8, !tbaa !23
  %58 = load i32, ptr %7, align 4, !tbaa !7
  %59 = zext i32 %58 to i64
  %60 = load ptr, ptr %4, align 8, !tbaa !3
  %61 = getelementptr inbounds nuw %struct.gz_state, ptr %60, i32 0, i32 3
  %62 = load i64, ptr %61, align 8, !tbaa !24
  %63 = add nsw i64 %62, %59
  store i64 %63, ptr %61, align 8, !tbaa !24
  %64 = load ptr, ptr %4, align 8, !tbaa !3
  %65 = call i32 @gz_comp(ptr noundef %64, i32 noundef 0)
  %66 = icmp eq i32 %65, -1
  br i1 %66, label %67, label %68

67:                                               ; preds = %49
  store i32 -1, ptr %3, align 4
  store i32 1, ptr %9, align 4
  br label %74

68:                                               ; preds = %49
  %69 = load i32, ptr %7, align 4, !tbaa !7
  %70 = zext i32 %69 to i64
  %71 = load i64, ptr %5, align 8, !tbaa !37
  %72 = sub nsw i64 %71, %70
  store i64 %72, ptr %5, align 8, !tbaa !37
  br label %22, !llvm.loop !38

73:                                               ; preds = %22
  store i32 0, ptr %3, align 4
  store i32 1, ptr %9, align 4
  br label %74

74:                                               ; preds = %73, %67, %20
  call void @llvm.lifetime.end.p0(i64 8, ptr %8) #10
  call void @llvm.lifetime.end.p0(i64 4, ptr %7) #10
  call void @llvm.lifetime.end.p0(i64 4, ptr %6) #10
  %75 = load i32, ptr %3, align 4
  ret i32 %75
}

; Function Attrs: nounwind uwtable
define i32 @gzprintf(ptr noundef %0, ptr noundef %1, ...) #0 {
  %3 = alloca i32, align 4
  %4 = alloca ptr, align 8
  %5 = alloca ptr, align 8
  %6 = alloca i32, align 4
  %7 = alloca i32, align 4
  %8 = alloca ptr, align 8
  %9 = alloca ptr, align 8
  %10 = alloca [1 x %struct.__va_list_tag], align 16
  %11 = alloca i32, align 4
  store ptr %0, ptr %4, align 8, !tbaa !3
  store ptr %1, ptr %5, align 8, !tbaa !42
  call void @llvm.lifetime.start.p0(i64 4, ptr %6) #10
  call void @llvm.lifetime.start.p0(i64 4, ptr %7) #10
  call void @llvm.lifetime.start.p0(i64 8, ptr %8) #10
  call void @llvm.lifetime.start.p0(i64 8, ptr %9) #10
  call void @llvm.lifetime.start.p0(i64 24, ptr %10) #10
  %12 = load ptr, ptr %4, align 8, !tbaa !3
  %13 = icmp eq ptr %12, null
  br i1 %13, label %14, label %15

14:                                               ; preds = %2
  store i32 -1, ptr %3, align 4
  store i32 1, ptr %11, align 4
  br label %120

15:                                               ; preds = %2
  %16 = load ptr, ptr %4, align 8, !tbaa !3
  store ptr %16, ptr %8, align 8, !tbaa !3
  %17 = load ptr, ptr %8, align 8, !tbaa !3
  %18 = getelementptr inbounds nuw %struct.gz_state, ptr %17, i32 0, i32 21
  store ptr %18, ptr %9, align 8, !tbaa !9
  %19 = load ptr, ptr %8, align 8, !tbaa !3
  %20 = getelementptr inbounds nuw %struct.gz_state, ptr %19, i32 0, i32 0
  %21 = load i32, ptr %20, align 8, !tbaa !11
  %22 = icmp ne i32 %21, 31153
  br i1 %22, label %28, label %23

23:                                               ; preds = %15
  %24 = load ptr, ptr %8, align 8, !tbaa !3
  %25 = getelementptr inbounds nuw %struct.gz_state, ptr %24, i32 0, i32 19
  %26 = load i32, ptr %25, align 4, !tbaa !17
  %27 = icmp ne i32 %26, 0
  br i1 %27, label %28, label %29

28:                                               ; preds = %23, %15
  store i32 0, ptr %3, align 4
  store i32 1, ptr %11, align 4
  br label %120

29:                                               ; preds = %23
  %30 = load ptr, ptr %8, align 8, !tbaa !3
  %31 = getelementptr inbounds nuw %struct.gz_state, ptr %30, i32 0, i32 4
  %32 = load i32, ptr %31, align 8, !tbaa !18
  %33 = icmp eq i32 %32, 0
  br i1 %33, label %34, label %39

34:                                               ; preds = %29
  %35 = load ptr, ptr %8, align 8, !tbaa !3
  %36 = call i32 @gz_init(ptr noundef %35)
  %37 = icmp eq i32 %36, -1
  br i1 %37, label %38, label %39

38:                                               ; preds = %34
  store i32 0, ptr %3, align 4
  store i32 1, ptr %11, align 4
  br label %120

39:                                               ; preds = %34, %29
  %40 = load ptr, ptr %8, align 8, !tbaa !3
  %41 = getelementptr inbounds nuw %struct.gz_state, ptr %40, i32 0, i32 18
  %42 = load i32, ptr %41, align 8, !tbaa !19
  %43 = icmp ne i32 %42, 0
  br i1 %43, label %44, label %55

44:                                               ; preds = %39
  %45 = load ptr, ptr %8, align 8, !tbaa !3
  %46 = getelementptr inbounds nuw %struct.gz_state, ptr %45, i32 0, i32 18
  store i32 0, ptr %46, align 8, !tbaa !19
  %47 = load ptr, ptr %8, align 8, !tbaa !3
  %48 = load ptr, ptr %8, align 8, !tbaa !3
  %49 = getelementptr inbounds nuw %struct.gz_state, ptr %48, i32 0, i32 17
  %50 = load i64, ptr %49, align 8, !tbaa !20
  %51 = call i32 @gz_zero(ptr noundef %47, i64 noundef %50)
  %52 = icmp eq i32 %51, -1
  br i1 %52, label %53, label %54

53:                                               ; preds = %44
  store i32 0, ptr %3, align 4
  store i32 1, ptr %11, align 4
  br label %120

54:                                               ; preds = %44
  br label %55

55:                                               ; preds = %54, %39
  %56 = load ptr, ptr %9, align 8, !tbaa !9
  %57 = getelementptr inbounds nuw %struct.z_stream_s, ptr %56, i32 0, i32 1
  %58 = load i32, ptr %57, align 8, !tbaa !21
  %59 = icmp ne i32 %58, 0
  br i1 %59, label %60, label %65

60:                                               ; preds = %55
  %61 = load ptr, ptr %8, align 8, !tbaa !3
  %62 = call i32 @gz_comp(ptr noundef %61, i32 noundef 0)
  %63 = icmp eq i32 %62, -1
  br i1 %63, label %64, label %65

64:                                               ; preds = %60
  store i32 0, ptr %3, align 4
  store i32 1, ptr %11, align 4
  br label %120

65:                                               ; preds = %60, %55
  %66 = load ptr, ptr %8, align 8, !tbaa !3
  %67 = getelementptr inbounds nuw %struct.gz_state, ptr %66, i32 0, i32 4
  %68 = load i32, ptr %67, align 8, !tbaa !18
  store i32 %68, ptr %6, align 4, !tbaa !7
  %69 = load ptr, ptr %8, align 8, !tbaa !3
  %70 = getelementptr inbounds nuw %struct.gz_state, ptr %69, i32 0, i32 6
  %71 = load ptr, ptr %70, align 8, !tbaa !22
  %72 = load i32, ptr %6, align 4, !tbaa !7
  %73 = sub nsw i32 %72, 1
  %74 = sext i32 %73 to i64
  %75 = getelementptr inbounds i8, ptr %71, i64 %74
  store i8 0, ptr %75, align 1, !tbaa !41
  %76 = getelementptr inbounds [1 x %struct.__va_list_tag], ptr %10, i64 0, i64 0
  call void @llvm.va_start.p0(ptr %76)
  %77 = load ptr, ptr %8, align 8, !tbaa !3
  %78 = getelementptr inbounds nuw %struct.gz_state, ptr %77, i32 0, i32 6
  %79 = load ptr, ptr %78, align 8, !tbaa !22
  %80 = load i32, ptr %6, align 4, !tbaa !7
  %81 = sext i32 %80 to i64
  %82 = load ptr, ptr %5, align 8, !tbaa !42
  %83 = getelementptr inbounds [1 x %struct.__va_list_tag], ptr %10, i64 0, i64 0
  %84 = call i32 @vsnprintf(ptr noundef %79, i64 noundef %81, ptr noundef %82, ptr noundef %83) #10
  store i32 %84, ptr %7, align 4, !tbaa !7
  %85 = getelementptr inbounds [1 x %struct.__va_list_tag], ptr %10, i64 0, i64 0
  call void @llvm.va_end.p0(ptr %85)
  %86 = load i32, ptr %7, align 4, !tbaa !7
  %87 = icmp sle i32 %86, 0
  br i1 %87, label %103, label %88

88:                                               ; preds = %65
  %89 = load i32, ptr %7, align 4, !tbaa !7
  %90 = load i32, ptr %6, align 4, !tbaa !7
  %91 = icmp sge i32 %89, %90
  br i1 %91, label %103, label %92

92:                                               ; preds = %88
  %93 = load ptr, ptr %8, align 8, !tbaa !3
  %94 = getelementptr inbounds nuw %struct.gz_state, ptr %93, i32 0, i32 6
  %95 = load ptr, ptr %94, align 8, !tbaa !22
  %96 = load i32, ptr %6, align 4, !tbaa !7
  %97 = sub nsw i32 %96, 1
  %98 = sext i32 %97 to i64
  %99 = getelementptr inbounds i8, ptr %95, i64 %98
  %100 = load i8, ptr %99, align 1, !tbaa !41
  %101 = zext i8 %100 to i32
  %102 = icmp ne i32 %101, 0
  br i1 %102, label %103, label %104

103:                                              ; preds = %92, %88, %65
  store i32 0, ptr %3, align 4
  store i32 1, ptr %11, align 4
  br label %120

104:                                              ; preds = %92
  %105 = load i32, ptr %7, align 4, !tbaa !7
  %106 = load ptr, ptr %9, align 8, !tbaa !9
  %107 = getelementptr inbounds nuw %struct.z_stream_s, ptr %106, i32 0, i32 1
  store i32 %105, ptr %107, align 8, !tbaa !21
  %108 = load ptr, ptr %8, align 8, !tbaa !3
  %109 = getelementptr inbounds nuw %struct.gz_state, ptr %108, i32 0, i32 6
  %110 = load ptr, ptr %109, align 8, !tbaa !22
  %111 = load ptr, ptr %9, align 8, !tbaa !9
  %112 = getelementptr inbounds nuw %struct.z_stream_s, ptr %111, i32 0, i32 0
  store ptr %110, ptr %112, align 8, !tbaa !23
  %113 = load i32, ptr %7, align 4, !tbaa !7
  %114 = sext i32 %113 to i64
  %115 = load ptr, ptr %8, align 8, !tbaa !3
  %116 = getelementptr inbounds nuw %struct.gz_state, ptr %115, i32 0, i32 3
  %117 = load i64, ptr %116, align 8, !tbaa !24
  %118 = add nsw i64 %117, %114
  store i64 %118, ptr %116, align 8, !tbaa !24
  %119 = load i32, ptr %7, align 4, !tbaa !7
  store i32 %119, ptr %3, align 4
  store i32 1, ptr %11, align 4
  br label %120

120:                                              ; preds = %104, %103, %64, %53, %38, %28, %14
  call void @llvm.lifetime.end.p0(i64 24, ptr %10) #10
  call void @llvm.lifetime.end.p0(i64 8, ptr %9) #10
  call void @llvm.lifetime.end.p0(i64 8, ptr %8) #10
  call void @llvm.lifetime.end.p0(i64 4, ptr %7) #10
  call void @llvm.lifetime.end.p0(i64 4, ptr %6) #10
  %121 = load i32, ptr %3, align 4
  ret i32 %121
}