; Function Attrs: nounwind uwtable
define range(i32 -1, 2147483647) i32 @gzprintf(ptr noundef %0, ptr noundef readonly captures(none) %1, ...) local_unnamed_addr #0 {
  %3 = alloca [1 x %struct.__va_list_tag], align 16
  call void @llvm.lifetime.start.p0(i64 24, ptr nonnull %3) #14
  %4 = icmp eq ptr %0, null
  br i1 %4, label %gz_zero.exit.thread, label %5

5:                                                ; preds = %2
  %6 = getelementptr inbounds nuw i8, ptr %0, i64 120
  %7 = load i32, ptr %0, align 8, !tbaa !3
  %.not = icmp eq i32 %7, 31153
  br i1 %.not, label %8, label %gz_zero.exit.thread

8:                                                ; preds = %5
  %9 = getelementptr inbounds nuw i8, ptr %0, i64 108
  %10 = load i32, ptr %9, align 4, !tbaa !13
  %.not33 = icmp eq i32 %10, 0
  br i1 %.not33, label %11, label %gz_zero.exit.thread

11:                                               ; preds = %8
  %12 = getelementptr inbounds nuw i8, ptr %0, i64 24
  %13 = load i32, ptr %12, align 8, !tbaa !14
  %14 = icmp eq i32 %13, 0
  br i1 %14, label %15, label %18

15:                                               ; preds = %11
  %16 = tail call fastcc i32 @gz_init(ptr noundef %0)
  %17 = icmp eq i32 %16, -1
  br i1 %17, label %gz_zero.exit.thread, label %18

18:                                               ; preds = %15, %11
  %19 = getelementptr inbounds nuw i8, ptr %0, i64 104
  %20 = load i32, ptr %19, align 8, !tbaa !15
  %.not34 = icmp eq i32 %20, 0
  br i1 %.not34, label %gz_zero.exit, label %21

21:                                               ; preds = %18
  store i32 0, ptr %19, align 8, !tbaa !15
  %22 = getelementptr inbounds nuw i8, ptr %0, i64 96
  %23 = load i64, ptr %22, align 8, !tbaa !16
  %24 = getelementptr inbounds nuw i8, ptr %0, i64 128
  %25 = load i32, ptr %24, align 8, !tbaa !17
  %.not.i = icmp eq i32 %25, 0
  br i1 %.not.i, label %29, label %26

26:                                               ; preds = %21
  %27 = tail call fastcc i32 @gz_comp(ptr noundef nonnull %0, i32 noundef 0)
  %28 = icmp eq i32 %27, -1
  br i1 %28, label %gz_zero.exit.thread, label %29

29:                                               ; preds = %26, %21
  %.not2224.i = icmp eq i64 %23, 0
  br i1 %.not2224.i, label %gz_zero.exit, label %.lr.ph.i

.lr.ph.i:                                         ; preds = %29
  %30 = getelementptr inbounds nuw i8, ptr %0, i64 32
  %31 = getelementptr inbounds nuw i8, ptr %0, i64 16
  br label %34

32:                                               ; preds = %42
  %33 = sub nsw i64 %.02026.i, %.pre-phi.i
  %.not22.i = icmp eq i64 %33, 0
  br i1 %.not22.i, label %gz_zero.exit, label %34, !llvm.loop !18

34:                                               ; preds = %32, %.lr.ph.i
  %.02026.i = phi i64 [ %23, %.lr.ph.i ], [ %33, %32 ]
  %.not2325.i = phi i1 [ false, %.lr.ph.i ], [ true, %32 ]
  %35 = load i32, ptr %12, align 8, !tbaa !14
  %36 = zext i32 %35 to i64
  %37 = tail call i64 @llvm.smin.i64(i64 %.02026.i, i64 %36)
  %38 = trunc i64 %37 to i32
  br i1 %.not2325.i, label %._crit_edge.i, label %39

._crit_edge.i:                                    ; preds = %34
  %.pre.i = and i64 %37, 4294967295
  br label %42

39:                                               ; preds = %34
  %40 = load ptr, ptr %30, align 8, !tbaa !20
  %41 = and i64 %37, 4294967295
  tail call void @llvm.memset.p0.i64(ptr align 1 %40, i8 0, i64 %41, i1 false)
  br label %42

42:                                               ; preds = %39, %._crit_edge.i
  %.pre-phi.i = phi i64 [ %.pre.i, %._crit_edge.i ], [ %41, %39 ]
  store i32 %38, ptr %24, align 8, !tbaa !17
  %43 = load ptr, ptr %30, align 8, !tbaa !20
  store ptr %43, ptr %6, align 8, !tbaa !21
  %44 = load i64, ptr %31, align 8, !tbaa !22
  %45 = add nsw i64 %44, %.pre-phi.i
  store i64 %45, ptr %31, align 8, !tbaa !22
  %46 = tail call fastcc i32 @gz_comp(ptr noundef nonnull %0, i32 noundef 0)
  %47 = icmp eq i32 %46, -1
  br i1 %47, label %gz_zero.exit.thread, label %32

gz_zero.exit:                                     ; preds = %32, %29, %18
  %48 = getelementptr inbounds nuw i8, ptr %0, i64 128
  %49 = load i32, ptr %48, align 8, !tbaa !17
  %.not35 = icmp eq i32 %49, 0
  br i1 %.not35, label %53, label %50

50:                                               ; preds = %gz_zero.exit
  %51 = tail call fastcc i32 @gz_comp(ptr noundef %0, i32 noundef 0)
  %52 = icmp eq i32 %51, -1
  br i1 %52, label %gz_zero.exit.thread, label %53

53:                                               ; preds = %50, %gz_zero.exit
  %54 = load i32, ptr %12, align 8, !tbaa !14
  %55 = getelementptr inbounds nuw i8, ptr %0, i64 32
  %56 = load ptr, ptr %55, align 8, !tbaa !20
  %57 = add nsw i32 %54, -1
  %58 = sext i32 %57 to i64
  %59 = getelementptr inbounds i8, ptr %56, i64 %58
  store i8 0, ptr %59, align 1, !tbaa !34
  call void @llvm.va_start.p0(ptr nonnull %3)
  %60 = load ptr, ptr %55, align 8, !tbaa !20
  %61 = sext i32 %54 to i64
  %62 = call i32 @vsnprintf(ptr noundef %60, i64 noundef %61, ptr noundef %1, ptr noundef nonnull %3) #14
  call void @llvm.va_end.p0(ptr nonnull %3)
  %63 = icmp sgt i32 %62, 0
  %.not36 = icmp slt i32 %62, %54
  %or.cond = and i1 %63, %.not36
  br i1 %or.cond, label %64, label %gz_zero.exit.thread

64:                                               ; preds = %53
  %65 = load ptr, ptr %55, align 8, !tbaa !20
  %66 = getelementptr inbounds i8, ptr %65, i64 %58
  %67 = load i8, ptr %66, align 1, !tbaa !34
  %.not37 = icmp eq i8 %67, 0
  br i1 %.not37, label %68, label %gz_zero.exit.thread

68:                                               ; preds = %64
  store i32 %62, ptr %48, align 8, !tbaa !17
  store ptr %65, ptr %6, align 8, !tbaa !21
  %69 = zext nneg i32 %62 to i64
  %70 = getelementptr inbounds nuw i8, ptr %0, i64 16
  %71 = load i64, ptr %70, align 8, !tbaa !22
  %72 = add nsw i64 %71, %69
  store i64 %72, ptr %70, align 8, !tbaa !22
  br label %gz_zero.exit.thread

gz_zero.exit.thread:                              ; preds = %42, %26, %53, %64, %50, %15, %5, %8, %2, %68
  %.0 = phi i32 [ %62, %68 ], [ -1, %2 ], [ 0, %8 ], [ 0, %5 ], [ 0, %15 ], [ 0, %50 ], [ 0, %64 ], [ 0, %53 ], [ 0, %26 ], [ 0, %42 ]
  call void @llvm.lifetime.end.p0(i64 24, ptr nonnull %3) #14
  ret i32 %.0
}